target datalayout = "e-m:e-p270:32:32-p271:32:32-p272:64:64-i64:64-i128:128-f80:128-n8:16:32:64-S128"
target triple = "x86_64-pc-linux-gnu"

%class.IdealLoopTree = type <{ ptr, ptr, ptr, ptr, ptr, ptr, i32, i32, %class.Node_List, i16, i8, [5 x i8], ptr, ptr, i8, [7 x i8] }>
%class.Node_List = type <{ %class.Node_Array, i32, [4 x i8] }>
%class.Node_Array = type { ptr, i32, ptr }
%class.Node = type <{ ptr, ptr, ptr, i32, i32, i32, i32, i32, i32, i32, [4 x i8] }>
%class.PhaseIdealLoop = type <{ %class.PhaseTransform, %class.Node_List, ptr, ptr, ptr, i32, [4 x i8], ptr, i8, [7 x i8], %class.Node_List, %class.Node_List, %class.GrowableArray, i32, i32, ptr, ptr, ptr, i32, i8, [3 x i8], i32, i8, [3 x i8] }>
%class.PhaseTransform = type { ptr, %class.Phase }
%class.Phase = type { i32, ptr }
%class.GrowableArray = type { %class.GrowableArrayWithAllocator, %class.GrowableArrayMetadata }
%class.GrowableArrayWithAllocator = type { %class.GrowableArrayView }
%class.GrowableArrayView = type { %class.GrowableArrayBase, ptr }
%class.GrowableArrayBase = type { i32, i32 }
%class.GrowableArrayMetadata = type { i64 }
%class.Node.base = type <{ ptr, ptr, ptr, i32, i32, i32, i32, i32, i32, i32 }>
%class.IfNode = type { %class.MultiBranchNode.base, float, float, [4 x i8] }
%class.MultiBranchNode.base = type { %class.MultiNode.base }
%class.MultiNode.base = type { %class.Node.base }
%class.JumpNode = type <{ %class.PCTableNode, ptr, float, [4 x i8] }>
%class.PCTableNode = type { %class.MultiBranchNode.base, i32 }
%class.ProjNode = type <{ %class.Node.base, i32, i8, [7 x i8] }>

@g_assert_poison = external global ptr, align 8
@.str.26 = private unnamed_addr constant [36 x i8] c"src/hotspot/share/opto/loopnode.hpp\00", align 1
@.str.27 = private unnamed_addr constant [31 x i8] c"guarantee(n != nullptr) failed\00", align 1
@.str.28 = private unnamed_addr constant [9 x i8] c"No Node.\00", align 1

; Function Attrs: mustprogress nounwind uwtable
define linkonce_odr hidden noundef ptr @_ZNK10Node_ArrayixEj(ptr noundef nonnull align 8 dereferenceable(24) %0, i32 noundef %1) #1 comdat align 2 {
  %3 = alloca ptr, align 8
  %4 = alloca i32, align 4
  store ptr %0, ptr %3, align 8
  store i32 %1, ptr %4, align 4
  %5 = load ptr, ptr %3, align 8
  %6 = load i32, ptr %4, align 4
  %7 = getelementptr inbounds %class.Node_Array, ptr %5, i32 0, i32 1
  %8 = load i32, ptr %7, align 8
  %9 = icmp ult i32 %6, %8
  br i1 %9, label %10, label %17

10:                                               ; preds = %2
  %11 = getelementptr inbounds %class.Node_Array, ptr %5, i32 0, i32 2
  %12 = load ptr, ptr %11, align 8
  %13 = load i32, ptr %4, align 4
  %14 = zext i32 %13 to i64
  %15 = getelementptr inbounds ptr, ptr %12, i64 %14
  %16 = load ptr, ptr %15, align 8
  br label %18

17:                                               ; preds = %2
  br label %18

18:                                               ; preds = %17, %10
  %19 = phi ptr [ %16, %10 ], [ null, %17 ]
  ret ptr %19
}

; Function Attrs: mustprogress nounwind uwtable
define linkonce_odr hidden noundef zeroext i1 @_ZNK14PhaseIdealLoop8has_nodeEPK4Node(ptr noundef nonnull align 8 dereferenceable(237) %0, ptr noundef %1) #1 comdat align 2 {
  %3 = alloca ptr, align 8
  %4 = alloca ptr, align 8
  store ptr %0, ptr %3, align 8
  store ptr %1, ptr %4, align 8
  %5 = load ptr, ptr %3, align 8
  br label %6

6:                                                ; preds = %2
  %7 = load ptr, ptr %4, align 8
  %8 = icmp ne ptr %7, null
  br i1 %8, label %11, label %9

9:                                                ; preds = %6
  %10 = load ptr, ptr @g_assert_poison, align 8
  store i8 88, ptr %10, align 1
  call void (ptr, i32, ptr, ptr, ...) @_Z15report_vm_errorPKciS0_S0_z(ptr noundef @.str.26, i32 noundef 976, ptr noundef @.str.27, ptr noundef @.str.28) #9
  unreachable

11:                                               ; preds = %6
  br label %12

12:                                               ; preds = %11
  %13 = getelementptr inbounds %class.PhaseIdealLoop, ptr %5, i32 0, i32 1
  %14 = load ptr, ptr %4, align 8
  %15 = getelementptr inbounds %class.Node, ptr %14, i32 0, i32 7
  %16 = load i32, ptr %15, align 8
  %17 = call noundef ptr @_ZNK10Node_ArrayixEj(ptr noundef nonnull align 8 dereferenceable(24) %13, i32 noundef %16)
  %18 = icmp ne ptr %17, null
  ret i1 %18
}

; Function Attrs: mustprogress nounwind uwtable
define linkonce_odr hidden noundef ptr @_ZNK14PhaseIdealLoop8get_loopEP4Node(ptr noundef nonnull align 8 dereferenceable(237) %0, ptr noundef %1) #1 comdat align 2 {
  %3 = alloca ptr, align 8
  %4 = alloca ptr, align 8
  %5 = alloca ptr, align 8
  store ptr %0, ptr %4, align 8
  store ptr %1, ptr %5, align 8
  %6 = load ptr, ptr %4, align 8
  %7 = load ptr, ptr %5, align 8
  %8 = call noundef zeroext i1 @_ZNK14PhaseIdealLoop8has_nodeEPK4Node(ptr noundef nonnull align 8 dereferenceable(237) %6, ptr noundef %7)
  br i1 %8, label %12, label %9

9:                                                ; preds = %2
  %10 = getelementptr inbounds %class.PhaseIdealLoop, ptr %6, i32 0, i32 3
  %11 = load ptr, ptr %10, align 8
  store ptr %11, ptr %3, align 8
  br label %18

12:                                               ; preds = %2
  %13 = getelementptr inbounds %class.PhaseIdealLoop, ptr %6, i32 0, i32 1
  %14 = load ptr, ptr %5, align 8
  %15 = getelementptr inbounds %class.Node, ptr %14, i32 0, i32 7
  %16 = load i32, ptr %15, align 8
  %17 = call noundef ptr @_ZNK10Node_ArrayixEj(ptr noundef nonnull align 8 dereferenceable(24) %13, i32 noundef %16)
  store ptr %17, ptr %3, align 8
  br label %18

18:                                               ; preds = %12, %9
  %19 = load ptr, ptr %3, align 8
  ret ptr %19
}

; Function Attrs: mustprogress nounwind uwtable
define linkonce_odr hidden noundef ptr @_ZNK4Node11as_JumpProjEv(ptr noundef nonnull align 8 dereferenceable(52) %0) #1 comdat align 2 {
  %2 = alloca ptr, align 8
  store ptr %0, ptr %2, align 8
  %3 = load ptr, ptr %2, align 8
  ret ptr %3
}

; Function Attrs: mustprogress nounwind uwtable
define linkonce_odr hidden noundef ptr @_ZNK4Node8fast_outEPPS_(ptr noundef nonnull align 8 dereferenceable(52) %0, ptr noundef %1) #1 comdat align 2 {
  %3 = alloca ptr, align 8
  %4 = alloca ptr, align 8
  store ptr %0, ptr %3, align 8
  store ptr %1, ptr %4, align 8
  %5 = load ptr, ptr %4, align 8
  %6 = load ptr, ptr %5, align 8
  ret ptr %6
}

; Function Attrs: mustprogress nounwind uwtable
define linkonce_odr hidden noundef ptr @_ZNK4Node9fast_outsERPPS_(ptr noundef nonnull align 8 dereferenceable(52) %0, ptr noundef nonnull align 8 dereferenceable(8) %1) #1 comdat align 2 {
  %3 = alloca ptr, align 8
  %4 = alloca ptr, align 8
  %5 = alloca ptr, align 8
  store ptr %0, ptr %3, align 8
  store ptr %1, ptr %4, align 8
  %6 = load ptr, ptr %3, align 8
  %7 = getelementptr inbounds %class.Node, ptr %6, i32 0, i32 2
  %8 = load ptr, ptr %7, align 8
  store ptr %8, ptr %5, align 8
  %9 = load ptr, ptr %5, align 8
  %10 = getelementptr inbounds %class.Node, ptr %6, i32 0, i32 5
  %11 = load i32, ptr %10, align 8
  %12 = zext i32 %11 to i64
  %13 = getelementptr inbounds ptr, ptr %9, i64 %12
  %14 = load ptr, ptr %4, align 8
  store ptr %13, ptr %14, align 8
  %15 = load ptr, ptr %5, align 8
  ret ptr %15
}

; Function Attrs: mustprogress nounwind uwtable
define linkonce_odr hidden noundef ptr @_ZNK4Node7as_JumpEv(ptr noundef nonnull align 8 dereferenceable(52) %0) #1 comdat align 2 {
  %2 = alloca ptr, align 8
  store ptr %0, ptr %2, align 8
  %3 = load ptr, ptr %2, align 8
  ret ptr %3
}

; Function Attrs: mustprogress nounwind uwtable
define linkonce_odr hidden noundef zeroext i1 @_ZNK4Node7is_JumpEv(ptr noundef nonnull align 8 dereferenceable(52) %0) #1 comdat align 2 {
  %2 = alloca ptr, align 8
  store ptr %0, ptr %2, align 8
  %3 = load ptr, ptr %2, align 8
  %4 = getelementptr inbounds %class.Node, ptr %3, i32 0, i32 8
  %5 = load i32, ptr %4, align 4
  %6 = and i32 %5, 63
  %7 = icmp eq i32 %6, 45
  ret i1 %7
}

; Function Attrs: mustprogress nounwind uwtable
define linkonce_odr hidden noundef ptr @_ZNK4Node5as_IfEv(ptr noundef nonnull align 8 dereferenceable(52) %0) #1 comdat align 2 {
  %2 = alloca ptr, align 8
  store ptr %0, ptr %2, align 8
  %3 = load ptr, ptr %2, align 8
  ret ptr %3
}

; Function Attrs: mustprogress nounwind uwtable
define linkonce_odr hidden noundef zeroext i1 @_ZNK4Node5is_IfEv(ptr noundef nonnull align 8 dereferenceable(52) %0) #1 comdat align 2 {
  %2 = alloca ptr, align 8
  store ptr %0, ptr %2, align 8
  %3 = load ptr, ptr %2, align 8
  %4 = getelementptr inbounds %class.Node, ptr %3, i32 0, i32 8
  %5 = load i32, ptr %4, align 4
  %6 = and i32 %5, 31
  %7 = icmp eq i32 %6, 21
  ret i1 %7
}

; Function Attrs: mustprogress nounwind uwtable
define hidden noundef float @_ZN13IdealLoopTree31compute_profile_trip_cnt_helperEP4Node(ptr noundef nonnull align 8 dereferenceable(113) %0, ptr noundef %1) #1 align 2 {
  %3 = alloca float, align 4
  %4 = alloca ptr, align 8
  %5 = alloca ptr, align 8
  %6 = alloca ptr, align 8
  %7 = alloca ptr, align 8
  %8 = alloca float, align 4
  %9 = alloca float, align 4
  %10 = alloca ptr, align 8
  %11 = alloca ptr, align 8
  %12 = alloca float, align 4
  %13 = alloca ptr, align 8
  %14 = alloca ptr, align 8
  %15 = alloca ptr, align 8
  %16 = alloca ptr, align 8
  store ptr %0, ptr %4, align 8
  store ptr %1, ptr %5, align 8
  %17 = load ptr, ptr %4, align 8
  %18 = load ptr, ptr %5, align 8
  %19 = call noundef zeroext i1 @_ZNK4Node5is_IfEv(ptr noundef nonnull align 8 dereferenceable(52) %18)
  br i1 %19, label %20, label %65

20:                                               ; preds = %2
  %21 = load ptr, ptr %5, align 8
  %22 = call noundef ptr @_ZNK4Node5as_IfEv(ptr noundef nonnull align 8 dereferenceable(52) %21)
  store ptr %22, ptr %6, align 8
  %23 = load ptr, ptr %6, align 8
  %24 = getelementptr inbounds %class.IfNode, ptr %23, i32 0, i32 2
  %25 = load float, ptr %24, align 8
  %26 = fcmp une float %25, -1.000000e+00
  br i1 %26, label %27, label %64

27:                                               ; preds = %20
  %28 = load ptr, ptr %6, align 8
  %29 = getelementptr inbounds %class.IfNode, ptr %28, i32 0, i32 1
  %30 = load float, ptr %29, align 4
  %31 = fcmp une float %30, -1.000000e+00
  br i1 %31, label %32, label %64

32:                                               ; preds = %27
  %33 = load ptr, ptr %6, align 8
  %34 = call noundef ptr @_ZNK13IdealLoopTree12is_loop_exitEP4Node(ptr noundef nonnull align 8 dereferenceable(113) %17, ptr noundef %33)
  store ptr %34, ptr %7, align 8
  %35 = load ptr, ptr %7, align 8
  %36 = icmp ne ptr %35, null
  br i1 %36, label %37, label %63

37:                                               ; preds = %32
  %38 = load ptr, ptr %6, align 8
  %39 = getelementptr inbounds %class.IfNode, ptr %38, i32 0, i32 1
  %40 = load float, ptr %39, align 4
  store float %40, ptr %8, align 4
  %41 = load ptr, ptr %7, align 8
  %42 = load ptr, ptr %41, align 8
  %43 = getelementptr inbounds ptr, ptr %42, i64 0
  %44 = load ptr, ptr %43, align 8
  %45 = call noundef i32 %44(ptr noundef nonnull align 8 dereferenceable(52) %41)
  %46 = icmp eq i32 %45, 179
  br i1 %46, label %47, label %52

47:                                               ; preds = %37
  %48 = load float, ptr %8, align 4
  %49 = fpext float %48 to double
  %50 = fsub double 1.000000e+00, %49
  %51 = fptrunc double %50 to float
  store float %51, ptr %8, align 4
  br label %52

52:                                               ; preds = %47, %37
  %53 = load float, ptr %8, align 4
  %54 = fcmp ogt float %53, 0x3EB0C6F7A0000000
  br i1 %54, label %55, label %62

55:                                               ; preds = %52
  %56 = load ptr, ptr %6, align 8
  %57 = getelementptr inbounds %class.IfNode, ptr %56, i32 0, i32 2
  %58 = load float, ptr %57, align 8
  %59 = load float, ptr %8, align 4
  %60 = fmul float %58, %59
  store float %60, ptr %9, align 4
  %61 = load float, ptr %9, align 4
  store float %61, ptr %3, align 4
  br label %119

62:                                               ; preds = %52
  br label %63

63:                                               ; preds = %62, %32
  br label %64

64:                                               ; preds = %63, %27, %20
  br label %65

65:                                               ; preds = %64, %2
  %66 = load ptr, ptr %5, align 8
  %67 = call noundef zeroext i1 @_ZNK4Node7is_JumpEv(ptr noundef nonnull align 8 dereferenceable(52) %66)
  br i1 %67, label %68, label %118

68:                                               ; preds = %65
  %69 = load ptr, ptr %5, align 8
  %70 = call noundef ptr @_ZNK4Node7as_JumpEv(ptr noundef nonnull align 8 dereferenceable(52) %69)
  store ptr %70, ptr %10, align 8
  %71 = load ptr, ptr %10, align 8
  %72 = getelementptr inbounds %class.JumpNode, ptr %71, i32 0, i32 2
  %73 = load float, ptr %72, align 8
  %74 = fcmp une float %73, -1.000000e+00
  br i1 %74, label %75, label %117

75:                                               ; preds = %68
  %76 = load ptr, ptr %10, align 8
  %77 = getelementptr inbounds %class.JumpNode, ptr %76, i32 0, i32 1
  %78 = load ptr, ptr %77, align 8
  store ptr %78, ptr %11, align 8
  store float 0.000000e+00, ptr %12, align 4
  %79 = getelementptr inbounds %class.IdealLoopTree, ptr %17, i32 0, i32 5
  %80 = load ptr, ptr %79, align 8
  store ptr %80, ptr %13, align 8
  %81 = load ptr, ptr %10, align 8
  %82 = call noundef ptr @_ZNK4Node9fast_outsERPPS_(ptr noundef nonnull align 8 dereferenceable(52) %81, ptr noundef nonnull align 8 dereferenceable(8) %14)
  store ptr %82, ptr %15, align 8
  br label %83

83:                                               ; preds = %108, %75
  %84 = load ptr, ptr %15, align 8
  %85 = load ptr, ptr %14, align 8
  %86 = icmp ult ptr %84, %85
  br i1 %86, label %87, label %111

87:                                               ; preds = %83
  %88 = load ptr, ptr %10, align 8
  %89 = load ptr, ptr %15, align 8
  %90 = call noundef ptr @_ZNK4Node8fast_outEPPS_(ptr noundef nonnull align 8 dereferenceable(52) %88, ptr noundef %89)
  %91 = call noundef ptr @_ZNK4Node11as_JumpProjEv(ptr noundef nonnull align 8 dereferenceable(52) %90)
  store ptr %91, ptr %16, align 8
  %92 = getelementptr inbounds %class.IdealLoopTree, ptr %17, i32 0, i32 5
  %93 = load ptr, ptr %92, align 8
  %94 = load ptr, ptr %16, align 8
  %95 = call noundef ptr @_ZNK14PhaseIdealLoop8get_loopEP4Node(ptr noundef nonnull align 8 dereferenceable(237) %93, ptr noundef %94)
  %96 = call noundef zeroext i1 @_ZNK13IdealLoopTree9is_memberEPKS_(ptr noundef nonnull align 8 dereferenceable(113) %17, ptr noundef %95)
  br i1 %96, label %107, label %97

97:                                               ; preds = %87
  %98 = load ptr, ptr %11, align 8
  %99 = load ptr, ptr %16, align 8
  %100 = getelementptr inbounds %class.ProjNode, ptr %99, i32 0, i32 1
  %101 = load i32, ptr %100, align 4
  %102 = zext i32 %101 to i64
  %103 = getelementptr inbounds float, ptr %98, i64 %102
  %104 = load float, ptr %103, align 4
  %105 = load float, ptr %12, align 4
  %106 = fadd float %105, %104
  store float %106, ptr %12, align 4
  br label %107

107:                                              ; preds = %97, %87
  br label %108

108:                                              ; preds = %107
  %109 = load ptr, ptr %15, align 8
  %110 = getelementptr inbounds ptr, ptr %109, i32 1
  store ptr %110, ptr %15, align 8
  br label %83, !llvm.loop !8

111:                                              ; preds = %83
  %112 = load float, ptr %12, align 4
  %113 = load ptr, ptr %10, align 8
  %114 = getelementptr inbounds %class.JumpNode, ptr %113, i32 0, i32 2
  %115 = load float, ptr %114, align 8
  %116 = fmul float %112, %115
  store float %116, ptr %3, align 4
  br label %119

117:                                              ; preds = %68
  br label %118

118:                                              ; preds = %117, %65
  store float 0.000000e+00, ptr %3, align 4
  br label %119

119:                                              ; preds = %118, %111, %55
  %120 = load float, ptr %3, align 4
  ret float %120
}