; Function Attrs: mustprogress nounwind uwtable
define hidden noundef float @_ZN13IdealLoopTree31compute_profile_trip_cnt_helperEP4Node(ptr noundef nonnull align 8 dereferenceable(113) %0, ptr nocapture noundef readonly %1) local_unnamed_addr #0 align 2 {
  %3 = getelementptr inbounds i8, ptr %1, i64 44
  %4 = load i32, ptr %3, align 4
  %5 = and i32 %4, 31
  %6 = icmp eq i32 %5, 21
  br i1 %6, label %7, label %28

7:                                                ; preds = %2
  %8 = getelementptr inbounds i8, ptr %1, i64 56
  %9 = load float, ptr %8, align 8
  %10 = fcmp une float %9, -1.000000e+00
  br i1 %10, label %11, label %28

11:                                               ; preds = %7
  %12 = getelementptr inbounds i8, ptr %1, i64 52
  %13 = load float, ptr %12, align 4
  %14 = fcmp une float %13, -1.000000e+00
  br i1 %14, label %15, label %28

15:                                               ; preds = %11
  %16 = tail call noundef ptr @_ZNK13IdealLoopTree12is_loop_exitEP4Node(ptr noundef nonnull align 8 dereferenceable(113) %0, ptr noundef nonnull %1)
  %.not = icmp eq ptr %16, null
  br i1 %.not, label %28, label %17

17:                                               ; preds = %15
  %18 = load float, ptr %12, align 4
  %19 = load ptr, ptr %16, align 8
  %20 = load ptr, ptr %19, align 8
  %21 = tail call noundef i32 %20(ptr noundef nonnull align 8 dereferenceable(52) %16) #11
  %22 = icmp eq i32 %21, 179
  %23 = fsub float 1.000000e+00, %18
  %.031 = select i1 %22, float %23, float %18
  %24 = fcmp ogt float %.031, 0x3EB0C6F7A0000000
  br i1 %24, label %25, label %28

25:                                               ; preds = %17
  %26 = load float, ptr %8, align 8
  %27 = fmul float %.031, %26
  br label %76

28:                                               ; preds = %7, %11, %17, %15, %2
  %29 = load i32, ptr %3, align 4
  %30 = and i32 %29, 63
  %31 = icmp eq i32 %30, 45
  br i1 %31, label %32, label %76

32:                                               ; preds = %28
  %33 = getelementptr inbounds i8, ptr %1, i64 64
  %34 = load float, ptr %33, align 8
  %35 = fcmp une float %34, -1.000000e+00
  br i1 %35, label %36, label %76

36:                                               ; preds = %32
  %37 = getelementptr inbounds i8, ptr %1, i64 56
  %38 = load ptr, ptr %37, align 8
  %39 = getelementptr inbounds i8, ptr %0, i64 40
  %40 = getelementptr inbounds i8, ptr %1, i64 16
  %41 = load ptr, ptr %40, align 8
  %42 = getelementptr inbounds i8, ptr %1, i64 32
  %43 = load i32, ptr %42, align 8
  %44 = zext i32 %43 to i64
  %45 = getelementptr inbounds ptr, ptr %41, i64 %44
  %.not37 = icmp eq i32 %43, 0
  br i1 %.not37, label %._crit_edge, label %.lr.ph

.lr.ph:                                           ; preds = %36, %71
  %.03036 = phi ptr [ %72, %71 ], [ %41, %36 ]
  %.03235 = phi float [ %.1, %71 ], [ 0.000000e+00, %36 ]
  %46 = load ptr, ptr %.03036, align 8
  %47 = load ptr, ptr %39, align 8
  %.not.i.i = icmp eq ptr %46, null
  br i1 %.not.i.i, label %48, label %50

48:                                               ; preds = %.lr.ph
  %49 = load ptr, ptr @g_assert_poison, align 8
  store i8 88, ptr %49, align 1
  tail call void (ptr, i32, ptr, ptr, ...) @_Z15report_vm_errorPKciS0_S0_z(ptr noundef nonnull @.str.26, i32 noundef 976, ptr noundef nonnull @.str.27, ptr noundef nonnull @.str.28) #10
  unreachable

50:                                               ; preds = %.lr.ph
  %51 = getelementptr inbounds i8, ptr %46, i64 40
  %52 = load i32, ptr %51, align 8
  %53 = getelementptr inbounds i8, ptr %47, i64 32
  %54 = load i32, ptr %53, align 8
  %55 = icmp ugt i32 %54, %52
  br i1 %55, label %_ZNK14PhaseIdealLoop8has_nodeEPK4Node.exit.i, label %_ZNK14PhaseIdealLoop8has_nodeEPK4Node.exit.thread.i

_ZNK14PhaseIdealLoop8has_nodeEPK4Node.exit.i:     ; preds = %50
  %56 = getelementptr inbounds i8, ptr %47, i64 40
  %57 = load ptr, ptr %56, align 8
  %58 = zext i32 %52 to i64
  %59 = getelementptr inbounds ptr, ptr %57, i64 %58
  %60 = load ptr, ptr %59, align 8
  %.not.i = icmp eq ptr %60, null
  br i1 %.not.i, label %_ZNK14PhaseIdealLoop8has_nodeEPK4Node.exit.thread.i, label %_ZNK14PhaseIdealLoop8get_loopEP4Node.exit

_ZNK14PhaseIdealLoop8has_nodeEPK4Node.exit.thread.i: ; preds = %_ZNK14PhaseIdealLoop8has_nodeEPK4Node.exit.i, %50
  %61 = getelementptr inbounds i8, ptr %47, i64 64
  %62 = load ptr, ptr %61, align 8
  br label %_ZNK14PhaseIdealLoop8get_loopEP4Node.exit

_ZNK14PhaseIdealLoop8get_loopEP4Node.exit:        ; preds = %_ZNK14PhaseIdealLoop8has_nodeEPK4Node.exit.i, %_ZNK14PhaseIdealLoop8has_nodeEPK4Node.exit.thread.i
  %.0.i = phi ptr [ %62, %_ZNK14PhaseIdealLoop8has_nodeEPK4Node.exit.thread.i ], [ %60, %_ZNK14PhaseIdealLoop8has_nodeEPK4Node.exit.i ]
  %63 = tail call noundef zeroext i1 @_ZNK13IdealLoopTree9is_memberEPKS_(ptr noundef nonnull align 8 dereferenceable(113) %0, ptr noundef %.0.i) #11
  br i1 %63, label %71, label %64

64:                                               ; preds = %_ZNK14PhaseIdealLoop8get_loopEP4Node.exit
  %65 = getelementptr inbounds i8, ptr %46, i64 52
  %66 = load i32, ptr %65, align 4
  %67 = zext i32 %66 to i64
  %68 = getelementptr inbounds float, ptr %38, i64 %67
  %69 = load float, ptr %68, align 4
  %70 = fadd float %.03235, %69
  br label %71

71:                                               ; preds = %_ZNK14PhaseIdealLoop8get_loopEP4Node.exit, %64
  %.1 = phi float [ %.03235, %_ZNK14PhaseIdealLoop8get_loopEP4Node.exit ], [ %70, %64 ]
  %72 = getelementptr inbounds i8, ptr %.03036, i64 8
  %73 = icmp ult ptr %72, %45
  br i1 %73, label %.lr.ph, label %._crit_edge.loopexit, !llvm.loop !10

._crit_edge.loopexit:                             ; preds = %71
  %.pre = load float, ptr %33, align 8
  br label %._crit_edge

._crit_edge:                                      ; preds = %._crit_edge.loopexit, %36
  %74 = phi float [ %34, %36 ], [ %.pre, %._crit_edge.loopexit ]
  %.032.lcssa = phi float [ 0.000000e+00, %36 ], [ %.1, %._crit_edge.loopexit ]
  %75 = fmul float %.032.lcssa, %74
  br label %76

76:                                               ; preds = %28, %32, %._crit_edge, %25
  %.0 = phi float [ %27, %25 ], [ %75, %._crit_edge ], [ 0.000000e+00, %32 ], [ 0.000000e+00, %28 ]
  ret float %.0
}